target datalayout = "e-m:e-p270:32:32-p271:32:32-p272:64:64-i64:64-i128:128-f80:128-n8:16:32:64-S128"
target triple = "x86_64-pc-linux-gnu"

; Function Attrs: nounwind uwtable
define hidden void @mbedtls_mpi_core_shift_l(ptr noundef %0, i64 noundef %1, i64 noundef %2) #0 {
  %4 = alloca ptr, align 8
  %5 = alloca i64, align 8
  %6 = alloca i64, align 8
  %7 = alloca i64, align 8
  %8 = alloca i64, align 8
  %9 = alloca i64, align 8
  %10 = alloca i64, align 8
  %11 = alloca i64, align 8
  store ptr %0, ptr %4, align 8, !tbaa !7
  store i64 %1, ptr %5, align 8, !tbaa !3
  store i64 %2, ptr %6, align 8, !tbaa !3
  call void @llvm.lifetime.start.p0(i64 8, ptr %7) #7
  call void @llvm.lifetime.start.p0(i64 8, ptr %8) #7
  call void @llvm.lifetime.start.p0(i64 8, ptr %9) #7
  call void @llvm.lifetime.start.p0(i64 8, ptr %10) #7
  store i64 0, ptr %10, align 8, !tbaa !3
  call void @llvm.lifetime.start.p0(i64 8, ptr %11) #7
  %12 = load i64, ptr %6, align 8, !tbaa !3
  %13 = udiv i64 %12, 64
  store i64 %13, ptr %8, align 8, !tbaa !3
  %14 = load i64, ptr %6, align 8, !tbaa !3
  %15 = and i64 %14, 63
  store i64 %15, ptr %9, align 8, !tbaa !3
  %16 = load i64, ptr %8, align 8, !tbaa !3
  %17 = icmp ugt i64 %16, 0
  br i1 %17, label %18, label %52

18:                                               ; preds = %3
  %19 = load i64, ptr %5, align 8, !tbaa !3
  store i64 %19, ptr %7, align 8, !tbaa !3
  br label %20

20:                                               ; preds = %36, %18
  %21 = load i64, ptr %7, align 8, !tbaa !3
  %22 = load i64, ptr %8, align 8, !tbaa !3
  %23 = icmp ugt i64 %21, %22
  br i1 %23, label %24, label %39

24:                                               ; preds = %20
  %25 = load ptr, ptr %4, align 8, !tbaa !7
  %26 = load i64, ptr %7, align 8, !tbaa !3
  %27 = load i64, ptr %8, align 8, !tbaa !3
  %28 = sub i64 %26, %27
  %29 = sub i64 %28, 1
  %30 = getelementptr inbounds nuw i64, ptr %25, i64 %29
  %31 = load i64, ptr %30, align 8, !tbaa !3
  %32 = load ptr, ptr %4, align 8, !tbaa !7
  %33 = load i64, ptr %7, align 8, !tbaa !3
  %34 = sub i64 %33, 1
  %35 = getelementptr inbounds nuw i64, ptr %32, i64 %34
  store i64 %31, ptr %35, align 8, !tbaa !3
  br label %36

36:                                               ; preds = %24
  %37 = load i64, ptr %7, align 8, !tbaa !3
  %38 = add i64 %37, -1
  store i64 %38, ptr %7, align 8, !tbaa !3
  br label %20, !llvm.loop !33

39:                                               ; preds = %20
  br label %40

40:                                               ; preds = %48, %39
  %41 = load i64, ptr %7, align 8, !tbaa !3
  %42 = icmp ugt i64 %41, 0
  br i1 %42, label %43, label %51

43:                                               ; preds = %40
  %44 = load ptr, ptr %4, align 8, !tbaa !7
  %45 = load i64, ptr %7, align 8, !tbaa !3
  %46 = sub i64 %45, 1
  %47 = getelementptr inbounds nuw i64, ptr %44, i64 %46
  store i64 0, ptr %47, align 8, !tbaa !3
  br label %48

48:                                               ; preds = %43
  %49 = load i64, ptr %7, align 8, !tbaa !3
  %50 = add i64 %49, -1
  store i64 %50, ptr %7, align 8, !tbaa !3
  br label %40, !llvm.loop !34

51:                                               ; preds = %40
  br label %52

52:                                               ; preds = %51, %3
  %53 = load i64, ptr %9, align 8, !tbaa !3
  %54 = icmp ugt i64 %53, 0
  br i1 %54, label %55, label %86

55:                                               ; preds = %52
  %56 = load i64, ptr %8, align 8, !tbaa !3
  store i64 %56, ptr %7, align 8, !tbaa !3
  br label %57

57:                                               ; preds = %82, %55
  %58 = load i64, ptr %7, align 8, !tbaa !3
  %59 = load i64, ptr %5, align 8, !tbaa !3
  %60 = icmp ult i64 %58, %59
  br i1 %60, label %61, label %85

61:                                               ; preds = %57
  %62 = load ptr, ptr %4, align 8, !tbaa !7
  %63 = load i64, ptr %7, align 8, !tbaa !3
  %64 = getelementptr inbounds nuw i64, ptr %62, i64 %63
  %65 = load i64, ptr %64, align 8, !tbaa !3
  %66 = load i64, ptr %9, align 8, !tbaa !3
  %67 = sub i64 64, %66
  %68 = lshr i64 %65, %67
  store i64 %68, ptr %11, align 8, !tbaa !3
  %69 = load i64, ptr %9, align 8, !tbaa !3
  %70 = load ptr, ptr %4, align 8, !tbaa !7
  %71 = load i64, ptr %7, align 8, !tbaa !3
  %72 = getelementptr inbounds nuw i64, ptr %70, i64 %71
  %73 = load i64, ptr %72, align 8, !tbaa !3
  %74 = shl i64 %73, %69
  store i64 %74, ptr %72, align 8, !tbaa !3
  %75 = load i64, ptr %10, align 8, !tbaa !3
  %76 = load ptr, ptr %4, align 8, !tbaa !7
  %77 = load i64, ptr %7, align 8, !tbaa !3
  %78 = getelementptr inbounds nuw i64, ptr %76, i64 %77
  %79 = load i64, ptr %78, align 8, !tbaa !3
  %80 = or i64 %79, %75
  store i64 %80, ptr %78, align 8, !tbaa !3
  %81 = load i64, ptr %11, align 8, !tbaa !3
  store i64 %81, ptr %10, align 8, !tbaa !3
  br label %82

82:                                               ; preds = %61
  %83 = load i64, ptr %7, align 8, !tbaa !3
  %84 = add i64 %83, 1
  store i64 %84, ptr %7, align 8, !tbaa !3
  br label %57, !llvm.loop !35

85:                                               ; preds = %57
  br label %86

86:                                               ; preds = %85, %52
  call void @llvm.lifetime.end.p0(i64 8, ptr %11) #7
  call void @llvm.lifetime.end.p0(i64 8, ptr %10) #7
  call void @llvm.lifetime.end.p0(i64 8, ptr %9) #7
  call void @llvm.lifetime.end.p0(i64 8, ptr %8) #7
  call void @llvm.lifetime.end.p0(i64 8, ptr %7) #7
  ret void
}