; Function Attrs: nofree norecurse nosync nounwind memory(argmem: readwrite) uwtable
define hidden void @mbedtls_mpi_core_shift_l(ptr noundef captures(none) %0, i64 noundef %1, i64 noundef %2) local_unnamed_addr #4 {
  %4 = lshr i64 %2, 6
  %5 = and i64 %2, 63
  %.not = icmp ult i64 %2, 64
  br i1 %.not, label %.loopexit36, label %.preheader37

.preheader37:                                     ; preds = %3
  %6 = icmp ugt i64 %1, %4
  br i1 %6, label %.lr.ph, label %.preheader35

.lr.ph:                                           ; preds = %.preheader37
  %7 = xor i64 %4, -1
  br label %9

.preheader35:                                     ; preds = %9, %.preheader37
  %.0.lcssa = phi i64 [ %1, %.preheader37 ], [ %14, %9 ]
  %.not3339 = icmp eq i64 %.0.lcssa, 0
  br i1 %.not3339, label %.loopexit36, label %.lr.ph41.preheader

.lr.ph41.preheader:                               ; preds = %.preheader35
  %8 = shl nuw nsw i64 %.0.lcssa, 3
  tail call void @llvm.memset.p0.i64(ptr align 8 %0, i8 0, i64 %8, i1 false), !tbaa !3
  br label %.loopexit36

9:                                                ; preds = %.lr.ph, %9
  %.038 = phi i64 [ %1, %.lr.ph ], [ %14, %9 ]
  %10 = getelementptr i64, ptr %0, i64 %.038
  %11 = getelementptr i64, ptr %10, i64 %7
  %12 = load i64, ptr %11, align 8, !tbaa !3
  %13 = getelementptr i8, ptr %10, i64 -8
  store i64 %12, ptr %13, align 8, !tbaa !3
  %14 = add i64 %.038, -1
  %15 = icmp ugt i64 %14, %4
  br i1 %15, label %9, label %.preheader35, !llvm.loop !26

.loopexit36:                                      ; preds = %.lr.ph41.preheader, %.preheader35, %3
  %.not34 = icmp ne i64 %5, 0
  %16 = icmp ult i64 %4, %1
  %or.cond = and i1 %.not34, %16
  br i1 %or.cond, label %.lr.ph44, label %.loopexit

.lr.ph44:                                         ; preds = %.loopexit36
  %17 = sub nuw nsw i64 64, %5
  br label %18

18:                                               ; preds = %.lr.ph44, %18
  %.243 = phi i64 [ %4, %.lr.ph44 ], [ %24, %18 ]
  %.03042 = phi i64 [ 0, %.lr.ph44 ], [ %21, %18 ]
  %19 = getelementptr inbounds nuw i64, ptr %0, i64 %.243
  %20 = load i64, ptr %19, align 8, !tbaa !3
  %21 = lshr i64 %20, %17
  %22 = shl i64 %20, %5
  %23 = or i64 %22, %.03042
  store i64 %23, ptr %19, align 8, !tbaa !3
  %24 = add nuw i64 %.243, 1
  %exitcond.not = icmp eq i64 %24, %1
  br i1 %exitcond.not, label %.loopexit, label %18, !llvm.loop !27

.loopexit:                                        ; preds = %18, %.loopexit36
  ret void
}